target datalayout = "e-m:e-p270:32:32-p271:32:32-p272:64:64-i64:64-i128:128-f80:128-n8:16:32:64-S128"
target triple = "x86_64-pc-linux-gnu"

%"struct.Yosys::DriveChunkWire" = type { ptr, i32, i32 }

; Function Attrs: mustprogress nounwind uwtable
define noundef zeroext i1 @_ZN5Yosys14DriveChunkWire10try_appendERKS0_(ptr noundef nonnull align 8 dereferenceable(16) %0, ptr noundef nonnull align 8 dereferenceable(16) %1) #7 align 2 {
  %3 = alloca i1, align 1
  %4 = alloca ptr, align 8
  %5 = alloca ptr, align 8
  store ptr %0, ptr %4, align 8, !tbaa !49
  store ptr %1, ptr %5, align 8, !tbaa !49
  %6 = load ptr, ptr %4, align 8
  %7 = load ptr, ptr %5, align 8, !tbaa !49
  %8 = getelementptr inbounds nuw %"struct.Yosys::DriveChunkWire", ptr %7, i32 0, i32 0
  %9 = load ptr, ptr %8, align 8, !tbaa !51
  %10 = getelementptr inbounds nuw %"struct.Yosys::DriveChunkWire", ptr %6, i32 0, i32 0
  %11 = load ptr, ptr %10, align 8, !tbaa !51
  %12 = icmp ne ptr %9, %11
  br i1 %12, label %23, label %13

13:                                               ; preds = %2
  %14 = load ptr, ptr %5, align 8, !tbaa !49
  %15 = getelementptr inbounds nuw %"struct.Yosys::DriveChunkWire", ptr %14, i32 0, i32 1
  %16 = load i32, ptr %15, align 8, !tbaa !53
  %17 = getelementptr inbounds nuw %"struct.Yosys::DriveChunkWire", ptr %6, i32 0, i32 1
  %18 = load i32, ptr %17, align 8, !tbaa !53
  %19 = getelementptr inbounds nuw %"struct.Yosys::DriveChunkWire", ptr %6, i32 0, i32 2
  %20 = load i32, ptr %19, align 4, !tbaa !54
  %21 = add nsw i32 %18, %20
  %22 = icmp ne i32 %16, %21
  br i1 %22, label %23, label %24

23:                                               ; preds = %13, %2
  store i1 false, ptr %3, align 1
  br label %31

24:                                               ; preds = %13
  %25 = load ptr, ptr %5, align 8, !tbaa !49
  %26 = getelementptr inbounds nuw %"struct.Yosys::DriveChunkWire", ptr %25, i32 0, i32 2
  %27 = load i32, ptr %26, align 4, !tbaa !54
  %28 = getelementptr inbounds nuw %"struct.Yosys::DriveChunkWire", ptr %6, i32 0, i32 2
  %29 = load i32, ptr %28, align 4, !tbaa !54
  %30 = add nsw i32 %29, %27
  store i32 %30, ptr %28, align 4, !tbaa !54
  store i1 true, ptr %3, align 1
  br label %31

31:                                               ; preds = %24, %23
  %32 = load i1, ptr %3, align 1
  ret i1 %32
}