; Function Attrs: mustprogress nofree norecurse nosync nounwind willreturn memory(argmem: readwrite) uwtable
define noundef zeroext i1 @_ZN5Yosys14DriveChunkWire10try_appendERKS0_(ptr noundef nonnull align 8 captures(none) dereferenceable(16) %0, ptr noundef nonnull readonly align 8 captures(none) dereferenceable(16) %1) local_unnamed_addr #9 align 2 {
  %3 = load ptr, ptr %1, align 8, !tbaa !58
  %4 = load ptr, ptr %0, align 8, !tbaa !58
  %.not = icmp eq ptr %3, %4
  br i1 %.not, label %5, label %17

5:                                                ; preds = %2
  %6 = getelementptr inbounds nuw i8, ptr %1, i64 8
  %7 = load i32, ptr %6, align 8, !tbaa !60
  %8 = getelementptr inbounds nuw i8, ptr %0, i64 8
  %9 = load i32, ptr %8, align 8, !tbaa !60
  %10 = getelementptr inbounds nuw i8, ptr %0, i64 12
  %11 = load i32, ptr %10, align 4, !tbaa !77
  %12 = add nsw i32 %11, %9
  %.not5 = icmp eq i32 %7, %12
  br i1 %.not5, label %13, label %17

13:                                               ; preds = %5
  %14 = getelementptr inbounds nuw i8, ptr %1, i64 12
  %15 = load i32, ptr %14, align 4, !tbaa !77
  %16 = add nsw i32 %15, %11
  store i32 %16, ptr %10, align 4, !tbaa !77
  br label %17

17:                                               ; preds = %2, %5, %13
  %.0 = phi i1 [ true, %13 ], [ false, %5 ], [ false, %2 ]
  ret i1 %.0
}